target datalayout = "e-m:e-p270:32:32-p271:32:32-p272:64:64-i64:64-i128:128-f80:128-n8:16:32:64-S128"
target triple = "x86_64-pc-linux-gnu"

%struct.lua_State = type { %struct.GCRef, i8, i8, i8, i8, %struct.MRef, %struct.GCRef, ptr, ptr, %struct.MRef, %struct.MRef, %struct.GCRef, %struct.GCRef, ptr, i32 }
%struct.MRef = type { i64 }
%struct.GCRef = type { i64 }
%struct.global_State = type { ptr, ptr, %struct.GCState, %struct.GCstr, i8, i8, i8, i8, %struct.StrInternState, i32, %struct.GCRef, %struct.SBuf, %union.TValue, %union.TValue, %struct.Node, %union.TValue, %struct.GCupval, i32, i32, ptr, ptr, ptr, i32, i32, %struct.GCRef, %struct.MRef, %struct.MRef, %struct.PRNGState, [39 x %struct.GCRef] }
%struct.GCState = type { i64, i64, i8, i8, i8, i8, i32, %struct.GCRef, %struct.MRef, %struct.GCRef, %struct.GCRef, %struct.GCRef, %struct.GCRef, i64, i64, i32, i32, %struct.MRef }
%struct.GCstr = type { %struct.GCRef, i8, i8, i8, i8, i32, i32, i32 }
%struct.StrInternState = type { ptr, i32, i32, i32, i8, i8, i8, i8, i64 }
%struct.SBuf = type { ptr, ptr, ptr, %struct.MRef }
%struct.Node = type { %union.TValue, %union.TValue, %struct.MRef }
%union.TValue = type { i64 }
%struct.GCupval = type { %struct.GCRef, i8, i8, i8, i8, %union.anon, %struct.MRef, i32 }
%union.anon = type { %struct.anon.1 }
%struct.anon.1 = type { %struct.GCRef, %struct.GCRef }
%struct.PRNGState = type { [4 x i64] }

@.str.1 = private unnamed_addr constant [20 x i8] c"VM handler failed: \00", align 1
@stderr = external global ptr, align 8
@.str.2 = private unnamed_addr constant [2 x i8] c"?\00", align 1

; Function Attrs: nounwind uwtable
define hidden void @lj_vmevent_call(ptr noundef %0, i64 noundef %1) #0 {
  %3 = alloca ptr, align 8
  %4 = alloca i64, align 8
  %5 = alloca ptr, align 8
  %6 = alloca i8, align 1
  %7 = alloca i8, align 1
  %8 = alloca i32, align 4
  store ptr %0, ptr %3, align 8, !tbaa !4
  store i64 %1, ptr %4, align 8, !tbaa !39
  call void @llvm.lifetime.start.p0(i64 8, ptr %5) #5
  %9 = load ptr, ptr %3, align 8, !tbaa !4
  %10 = getelementptr inbounds nuw %struct.lua_State, ptr %9, i32 0, i32 5
  %11 = getelementptr inbounds nuw %struct.MRef, ptr %10, i32 0, i32 0
  %12 = load i64, ptr %11, align 8, !tbaa !11
  %13 = inttoptr i64 %12 to ptr
  store ptr %13, ptr %5, align 8, !tbaa !17
  call void @llvm.lifetime.start.p0(i64 1, ptr %6) #5
  %14 = load ptr, ptr %5, align 8, !tbaa !17
  %15 = getelementptr inbounds nuw %struct.global_State, ptr %14, i32 0, i32 7
  %16 = load i8, ptr %15, align 1, !tbaa !25
  store i8 %16, ptr %6, align 1, !tbaa !21
  call void @llvm.lifetime.start.p0(i64 1, ptr %7) #5
  %17 = load ptr, ptr %5, align 8, !tbaa !17
  %18 = getelementptr inbounds nuw %struct.global_State, ptr %17, i32 0, i32 5
  %19 = load i8, ptr %18, align 1, !tbaa !40
  %20 = zext i8 %19 to i32
  %21 = and i32 %20, -16
  %22 = trunc i32 %21 to i8
  store i8 %22, ptr %7, align 1, !tbaa !21
  call void @llvm.lifetime.start.p0(i64 4, ptr %8) #5
  %23 = load ptr, ptr %5, align 8, !tbaa !17
  %24 = getelementptr inbounds nuw %struct.global_State, ptr %23, i32 0, i32 7
  store i8 0, ptr %24, align 1, !tbaa !25
  %25 = load ptr, ptr %5, align 8, !tbaa !17
  %26 = getelementptr inbounds nuw %struct.global_State, ptr %25, i32 0, i32 5
  %27 = load i8, ptr %26, align 1, !tbaa !40
  %28 = zext i8 %27 to i32
  %29 = or i32 %28, 48
  %30 = trunc i32 %29 to i8
  store i8 %30, ptr %26, align 1, !tbaa !40
  %31 = load ptr, ptr %3, align 8, !tbaa !4
  %32 = load ptr, ptr %3, align 8, !tbaa !4
  %33 = getelementptr inbounds nuw %struct.lua_State, ptr %32, i32 0, i32 10
  %34 = getelementptr inbounds nuw %struct.MRef, ptr %33, i32 0, i32 0
  %35 = load i64, ptr %34, align 8, !tbaa !24
  %36 = inttoptr i64 %35 to ptr
  %37 = load i64, ptr %4, align 8, !tbaa !39
  %38 = getelementptr inbounds i8, ptr %36, i64 %37
  %39 = call i32 @lj_vm_pcall(ptr noundef %31, ptr noundef %38, i32 noundef 1, i64 noundef 0)
  store i32 %39, ptr %8, align 4, !tbaa !9
  %40 = load i32, ptr %8, align 4, !tbaa !9
  %41 = icmp ne i32 %40, 0
  %42 = xor i1 %41, true
  %43 = xor i1 %42, true
  %44 = zext i1 %43 to i32
  %45 = sext i32 %44 to i64
  %46 = call i64 @llvm.expect.i64(i64 %45, i64 0)
  %47 = icmp ne i64 %46, 0
  br i1 %47, label %48, label %78

48:                                               ; preds = %2
  %49 = load ptr, ptr %3, align 8, !tbaa !4
  %50 = getelementptr inbounds nuw %struct.lua_State, ptr %49, i32 0, i32 8
  %51 = load ptr, ptr %50, align 8, !tbaa !23
  %52 = getelementptr inbounds %union.TValue, ptr %51, i32 -1
  store ptr %52, ptr %50, align 8, !tbaa !23
  %53 = load ptr, ptr @stderr, align 8, !tbaa !41
  %54 = call i32 @fputs(ptr noundef @.str.1, ptr noundef %53)
  %55 = load ptr, ptr %3, align 8, !tbaa !4
  %56 = getelementptr inbounds nuw %struct.lua_State, ptr %55, i32 0, i32 8
  %57 = load ptr, ptr %56, align 8, !tbaa !23
  %58 = load i64, ptr %57, align 8, !tbaa !21
  %59 = ashr i64 %58, 47
  %60 = trunc i64 %59 to i32
  %61 = icmp eq i32 %60, -5
  br i1 %61, label %62, label %71

62:                                               ; preds = %48
  %63 = load ptr, ptr %3, align 8, !tbaa !4
  %64 = getelementptr inbounds nuw %struct.lua_State, ptr %63, i32 0, i32 8
  %65 = load ptr, ptr %64, align 8, !tbaa !23
  %66 = getelementptr inbounds nuw %struct.GCRef, ptr %65, i32 0, i32 0
  %67 = load i64, ptr %66, align 8, !tbaa !21
  %68 = and i64 %67, 140737488355327
  %69 = inttoptr i64 %68 to ptr
  %70 = getelementptr inbounds %struct.GCstr, ptr %69, i64 1
  br label %72

71:                                               ; preds = %48
  br label %72

72:                                               ; preds = %71, %62
  %73 = phi ptr [ %70, %62 ], [ @.str.2, %71 ]
  %74 = load ptr, ptr @stderr, align 8, !tbaa !41
  %75 = call i32 @fputs(ptr noundef %73, ptr noundef %74)
  %76 = load ptr, ptr @stderr, align 8, !tbaa !41
  %77 = call i32 @fputc(i32 noundef 10, ptr noundef %76)
  br label %78

78:                                               ; preds = %72, %2
  %79 = load ptr, ptr %5, align 8, !tbaa !17
  %80 = getelementptr inbounds nuw %struct.global_State, ptr %79, i32 0, i32 5
  %81 = load i8, ptr %80, align 1, !tbaa !40
  %82 = zext i8 %81 to i32
  %83 = and i32 %82, 15
  %84 = load i8, ptr %7, align 1, !tbaa !21
  %85 = zext i8 %84 to i32
  %86 = or i32 %83, %85
  %87 = trunc i32 %86 to i8
  %88 = load ptr, ptr %5, align 8, !tbaa !17
  %89 = getelementptr inbounds nuw %struct.global_State, ptr %88, i32 0, i32 5
  store i8 %87, ptr %89, align 1, !tbaa !40
  %90 = load ptr, ptr %5, align 8, !tbaa !17
  %91 = getelementptr inbounds nuw %struct.global_State, ptr %90, i32 0, i32 7
  %92 = load i8, ptr %91, align 1, !tbaa !25
  %93 = zext i8 %92 to i32
  %94 = icmp ne i32 %93, 255
  br i1 %94, label %95, label %99

95:                                               ; preds = %78
  %96 = load i8, ptr %6, align 1, !tbaa !21
  %97 = load ptr, ptr %5, align 8, !tbaa !17
  %98 = getelementptr inbounds nuw %struct.global_State, ptr %97, i32 0, i32 7
  store i8 %96, ptr %98, align 1, !tbaa !25
  br label %99

99:                                               ; preds = %95, %78
  call void @llvm.lifetime.end.p0(i64 4, ptr %8) #5
  call void @llvm.lifetime.end.p0(i64 1, ptr %7) #5
  call void @llvm.lifetime.end.p0(i64 1, ptr %6) #5
  call void @llvm.lifetime.end.p0(i64 8, ptr %5) #5
  ret void
}