; Function Attrs: nounwind uwtable
define hidden void @lj_vmevent_call(ptr noundef %0, i64 noundef %1) local_unnamed_addr #0 {
  %3 = getelementptr inbounds nuw i8, ptr %0, i64 16
  %4 = load i64, ptr %3, align 8, !tbaa !4
  %5 = inttoptr i64 %4 to ptr
  %6 = getelementptr inbounds nuw i8, ptr %5, i64 147
  %7 = load i8, ptr %6, align 1, !tbaa !18
  %8 = getelementptr inbounds nuw i8, ptr %5, i64 145
  %9 = load i8, ptr %8, align 1, !tbaa !29
  %10 = and i8 %9, -16
  store i8 0, ptr %6, align 1, !tbaa !18
  %11 = or i8 %9, 48
  store i8 %11, ptr %8, align 1, !tbaa !29
  %12 = getelementptr inbounds nuw i8, ptr %0, i64 56
  %13 = load i64, ptr %12, align 8, !tbaa !17
  %14 = inttoptr i64 %13 to ptr
  %15 = getelementptr inbounds i8, ptr %14, i64 %1
  %16 = tail call i32 @lj_vm_pcall(ptr noundef %0, ptr noundef %15, i32 noundef 1, i64 noundef 0) #4
  %.not = icmp eq i32 %16, 0
  br i1 %.not, label %34, label %17, !prof !30

17:                                               ; preds = %2
  %18 = getelementptr inbounds nuw i8, ptr %0, i64 40
  %19 = load ptr, ptr %18, align 8, !tbaa !16
  %20 = getelementptr inbounds i8, ptr %19, i64 -8
  store ptr %20, ptr %18, align 8, !tbaa !16
  %21 = load ptr, ptr @stderr, align 8, !tbaa !31
  %22 = tail call i64 @fwrite(ptr nonnull @.str.1, i64 19, i64 1, ptr %21) #5
  %23 = load ptr, ptr %18, align 8, !tbaa !16
  %24 = load i64, ptr %23, align 8, !tbaa !14
  %.mask = and i64 %24, -140737488355328
  %25 = icmp eq i64 %.mask, -703687441776640
  %26 = and i64 %24, 140737488355327
  %27 = inttoptr i64 %26 to ptr
  %28 = getelementptr inbounds nuw i8, ptr %27, i64 24
  %29 = select i1 %25, ptr %28, ptr @.str.2
  %30 = load ptr, ptr @stderr, align 8, !tbaa !31
  %31 = tail call i32 @fputs(ptr noundef nonnull %29, ptr noundef %30) #5
  %32 = load ptr, ptr @stderr, align 8, !tbaa !31
  %33 = tail call i32 @fputc(i32 noundef 10, ptr noundef %32)
  br label %34

34:                                               ; preds = %17, %2
  %35 = load i8, ptr %8, align 1, !tbaa !29
  %36 = and i8 %35, 15
  %37 = or disjoint i8 %36, %10
  store i8 %37, ptr %8, align 1, !tbaa !29
  %38 = load i8, ptr %6, align 1, !tbaa !18
  %.not17 = icmp eq i8 %38, -1
  br i1 %.not17, label %40, label %39

39:                                               ; preds = %34
  store i8 %7, ptr %6, align 1, !tbaa !18
  br label %40

40:                                               ; preds = %39, %34
  ret void
}